; Function Attrs: nounwind uwtable
define internal fastcc ptr @typevartuple_unpack(ptr noundef %0) unnamed_addr #0 {
  %2 = tail call ptr @PyImport_ImportModule(ptr noundef nonnull @.str.98) #8
  %3 = icmp eq ptr %2, null
  br i1 %3, label %Py_DECREF.exit15, label %4

4:                                                ; preds = %1
  %5 = tail call ptr @PyObject_GetAttrString(ptr noundef nonnull %2, ptr noundef nonnull @.str.99) #8
  %6 = icmp eq ptr %5, null
  br i1 %6, label %7, label %12

7:                                                ; preds = %4
  %8 = load i32, ptr %2, align 8, !tbaa !27
  %.not.i14 = icmp sgt i32 %8, -1
  br i1 %.not.i14, label %9, label %Py_DECREF.exit15

9:                                                ; preds = %7
  %10 = add nsw i32 %8, -1
  store i32 %10, ptr %2, align 8, !tbaa !27
  %11 = icmp eq i32 %10, 0
  br i1 %11, label %Py_DECREF.exit15.sink.split, label %Py_DECREF.exit15

12:                                               ; preds = %4
  %13 = tail call ptr @PyObject_GetItem(ptr noundef nonnull %5, ptr noundef %0) #8
  %14 = load i32, ptr %2, align 8, !tbaa !27
  %.not.i12 = icmp sgt i32 %14, -1
  br i1 %.not.i12, label %15, label %Py_DECREF.exit13

15:                                               ; preds = %12
  %16 = add nsw i32 %14, -1
  store i32 %16, ptr %2, align 8, !tbaa !27
  %17 = icmp eq i32 %16, 0
  br i1 %17, label %18, label %Py_DECREF.exit13

18:                                               ; preds = %15
  tail call void @_Py_Dealloc(ptr noundef nonnull %2) #8
  br label %Py_DECREF.exit13

Py_DECREF.exit13:                                 ; preds = %12, %15, %18
  %19 = load i32, ptr %5, align 8, !tbaa !27
  %.not.i = icmp sgt i32 %19, -1
  br i1 %.not.i, label %20, label %Py_DECREF.exit15

20:                                               ; preds = %Py_DECREF.exit13
  %21 = add nsw i32 %19, -1
  store i32 %21, ptr %5, align 8, !tbaa !27
  %22 = icmp eq i32 %21, 0
  br i1 %22, label %Py_DECREF.exit15.sink.split, label %Py_DECREF.exit15

Py_DECREF.exit15.sink.split:                      ; preds = %20, %9
  %.sink = phi ptr [ %2, %9 ], [ %5, %20 ]
  %.0.ph = phi ptr [ null, %9 ], [ %13, %20 ]
  tail call void @_Py_Dealloc(ptr noundef nonnull %.sink) #8
  br label %Py_DECREF.exit15

Py_DECREF.exit15:                                 ; preds = %Py_DECREF.exit15.sink.split, %20, %Py_DECREF.exit13, %9, %7, %1
  %.0 = phi ptr [ null, %1 ], [ null, %7 ], [ null, %9 ], [ %13, %Py_DECREF.exit13 ], [ %13, %20 ], [ %.0.ph, %Py_DECREF.exit15.sink.split ]
  ret ptr %.0
}